target datalayout = "e-m:e-p270:32:32-p271:32:32-p272:64:64-i64:64-i128:128-f80:128-n8:16:32:64-S128"
target triple = "x86_64-pc-linux-gnu"

%struct.jfrLogSubscriber = type { ptr, ptr }
%class.JavaValue = type { i8, %"union.JavaValue::JavaCallValue" }
%"union.JavaValue::JavaCallValue" = type { double }
%class.JfrJavaArguments = type <{ %"class.JfrJavaArguments::Parameters", ptr, ptr, ptr, ptr, i32, [4 x i8] }>
%"class.JfrJavaArguments::Parameters" = type { [16 x %class.JavaValue], i32, i32 }

@_ZL12log_tag_sets = internal global [16 x %struct.jfrLogSubscriber] zeroinitializer, align 16
@.str.26 = private unnamed_addr constant [12 x i8] c"tagSetLevel\00", align 1
@.str.27 = private unnamed_addr constant [2 x i8] c"I\00", align 1

; Function Attrs: mustprogress nounwind uwtable
define linkonce_odr hidden void @_ZN9JavaValueC2E9BasicType(ptr noundef nonnull align 8 dereferenceable(16) %0, i8 noundef zeroext %1) unnamed_addr #1 comdat align 2 {
  %3 = alloca ptr, align 8
  %4 = alloca i8, align 1
  store ptr %0, ptr %3, align 8
  store i8 %1, ptr %4, align 1
  %5 = load ptr, ptr %3, align 8
  %6 = load i8, ptr %4, align 1
  %7 = getelementptr inbounds %class.JavaValue, ptr %5, i32 0, i32 0
  store i8 %6, ptr %7, align 8
  ret void
}

; Function Attrs: mustprogress nounwind uwtable
define internal void @_ZL14log_cfg_updateN8LogLevel4typeE16JfrLogTagSetTypeP10JavaThread(i32 noundef %0, i32 noundef %1, ptr noundef %2) #1 {
  %4 = alloca i32, align 4
  %5 = alloca i32, align 4
  %6 = alloca ptr, align 8
  %7 = alloca ptr, align 8
  %8 = alloca %class.JavaValue, align 8
  %9 = alloca %class.JfrJavaArguments, align 8
  store i32 %0, ptr %4, align 4
  store i32 %1, ptr %5, align 4
  store ptr %2, ptr %6, align 8
  %10 = load i32, ptr %5, align 4
  %11 = zext i32 %10 to i64
  %12 = getelementptr inbounds [16 x %struct.jfrLogSubscriber], ptr @_ZL12log_tag_sets, i64 0, i64 %11
  %13 = getelementptr inbounds %struct.jfrLogSubscriber, ptr %12, i32 0, i32 0
  %14 = load ptr, ptr %13, align 16
  %15 = icmp eq ptr %14, null
  br i1 %15, label %16, label %17

16:                                               ; preds = %3
  br label %29

17:                                               ; preds = %3
  %18 = load i32, ptr %5, align 4
  %19 = zext i32 %18 to i64
  %20 = getelementptr inbounds [16 x %struct.jfrLogSubscriber], ptr @_ZL12log_tag_sets, i64 0, i64 %19
  %21 = getelementptr inbounds %struct.jfrLogSubscriber, ptr %20, i32 0, i32 0
  %22 = load ptr, ptr %21, align 16
  store ptr %22, ptr %7, align 8
  call void @_ZN9JavaValueC2E9BasicType(ptr noundef nonnull align 8 dereferenceable(16) %8, i8 noundef zeroext 14)
  call void @_ZN16JfrJavaArgumentsC1EP9JavaValue(ptr noundef nonnull align 8 dereferenceable(300) %9, ptr noundef %8)
  %23 = load ptr, ptr %7, align 8
  %24 = call noundef ptr @_ZN14JfrJavaSupport5klassEP8_jobject(ptr noundef %23)
  call void @_ZN16JfrJavaArguments9set_klassEPK5Klass(ptr noundef nonnull align 8 dereferenceable(300) %9, ptr noundef %24)
  call void @_ZN16JfrJavaArguments8set_nameEPKc(ptr noundef nonnull align 8 dereferenceable(300) %9, ptr noundef @.str.26)
  call void @_ZN16JfrJavaArguments13set_signatureEPKc(ptr noundef nonnull align 8 dereferenceable(300) %9, ptr noundef @.str.27)
  %25 = load ptr, ptr %7, align 8
  %26 = call noundef ptr @_ZN14JfrJavaSupport16resolve_non_nullEP8_jobject(ptr noundef %25)
  call void @_ZN16JfrJavaArguments12set_receiverEP7oopDesc(ptr noundef nonnull align 8 dereferenceable(300) %9, ptr noundef %26)
  %27 = load i32, ptr %4, align 4
  call void @_ZN16JfrJavaArguments8push_intEi(ptr noundef nonnull align 8 dereferenceable(300) %9, i32 noundef %27)
  %28 = load ptr, ptr %6, align 8
  call void @_ZN14JfrJavaSupport9set_fieldEP16JfrJavaArgumentsP10JavaThread(ptr noundef %9, ptr noundef %28)
  br label %29

29:                                               ; preds = %17, %16
  ret void
}