; Function Attrs: mustprogress nounwind uwtable
define internal fastcc void @_ZL14log_cfg_updateN8LogLevel4typeE16JfrLogTagSetTypeP10JavaThread(i32 noundef %0, i32 noundef %1, ptr noundef %2) unnamed_addr #0 {
  %4 = alloca %class.JavaValue, align 8
  %5 = alloca %class.JfrJavaArguments, align 8
  %6 = zext i32 %1 to i64
  %7 = getelementptr inbounds [16 x %struct.jfrLogSubscriber], ptr @_ZL12log_tag_sets, i64 0, i64 %6
  %8 = load ptr, ptr %7, align 16
  %9 = icmp eq ptr %8, null
  br i1 %9, label %13, label %10

10:                                               ; preds = %3
  store i8 14, ptr %4, align 8
  call void @_ZN16JfrJavaArgumentsC1EP9JavaValue(ptr noundef nonnull align 8 dereferenceable(300) %5, ptr noundef nonnull %4) #6
  %11 = call noundef ptr @_ZN14JfrJavaSupport5klassEP8_jobject(ptr noundef nonnull %8) #6
  call void @_ZN16JfrJavaArguments9set_klassEPK5Klass(ptr noundef nonnull align 8 dereferenceable(300) %5, ptr noundef %11) #6
  call void @_ZN16JfrJavaArguments8set_nameEPKc(ptr noundef nonnull align 8 dereferenceable(300) %5, ptr noundef nonnull @.str.26) #6
  call void @_ZN16JfrJavaArguments13set_signatureEPKc(ptr noundef nonnull align 8 dereferenceable(300) %5, ptr noundef nonnull @.str.27) #6
  %12 = call noundef ptr @_ZN14JfrJavaSupport16resolve_non_nullEP8_jobject(ptr noundef nonnull %8) #6
  call void @_ZN16JfrJavaArguments12set_receiverEP7oopDesc(ptr noundef nonnull align 8 dereferenceable(300) %5, ptr noundef %12) #6
  call void @_ZN16JfrJavaArguments8push_intEi(ptr noundef nonnull align 8 dereferenceable(300) %5, i32 noundef %0) #6
  call void @_ZN14JfrJavaSupport9set_fieldEP16JfrJavaArgumentsP10JavaThread(ptr noundef nonnull %5, ptr noundef %2) #6
  br label %13

13:                                               ; preds = %3, %10
  ret void
}